target datalayout = "e-m:e-p270:32:32-p271:32:32-p272:64:64-i64:64-i128:128-f80:128-n8:16:32:64-S128"
target triple = "x86_64-pc-linux-gnu"

%struct.ParseContext_ = type { %struct.TokenData, i32, %union.SourceSpan, %union.SourceSpan, ptr, %struct.Lexer }
%struct.TokenData = type { ptr, i64, %union.anon.86 }
%union.anon.86 = type { %struct.anon.89 }
%struct.anon.89 = type { %struct.Int128_, i8 }
%struct.Int128_ = type { i64, i64 }
%union.SourceSpan = type { i64 }
%struct.Lexer = type { ptr, ptr, ptr, ptr, i32, i32, ptr, ptr, ptr, %struct.TokenData, %union.SourceSpan, i32, i32 }
%struct.Expr_ = type { ptr, %union.SourceSpan, i16, %union.anon.30 }
%union.anon.30 = type { %struct.ExprAnySwitch }
%struct.ExprAnySwitch = type { i8, %union.anon.32 }
%union.anon.32 = type { %struct.anon.33 }
%struct.anon.33 = type { ptr, %union.SourceSpan, ptr }
%struct.Decl_ = type { ptr, ptr, %union.SourceSpan, i64, %union.anon, i32, %union.anon.1, i64, ptr, ptr, ptr, %union.anon.2 }
%union.anon = type { ptr }
%union.anon.1 = type { i16 }
%union.anon.2 = type { %struct.FuncDecl }
%struct.FuncDecl = type { i32, [4 x i8], %struct.Signature_, i32, i32, %union.anon.9 }
%struct.Signature_ = type <{ %struct.CalleeAttributes, i16, i8, i32, i32, [4 x i8], ptr }>
%struct.CalleeAttributes = type { i8 }
%union.anon.9 = type { %struct.anon.10 }
%struct.anon.10 = type { i16, %union.anon.11 }
%union.anon.11 = type { ptr }
%struct.VarDecl_ = type { i32, i32, %union.anon.15, %union.anon.16 }
%union.anon.15 = type { ptr }
%union.anon.16 = type { %struct.anon.17 }
%struct.anon.17 = type { ptr, %union.SourceSpan }

@poisoned_decl = external global ptr, align 8
@.str.24 = private unnamed_addr constant [52 x i8] c"Constants must be declared using 'const' not 'var'.\00", align 1
@.str.25 = private unnamed_addr constant [73 x i8] c"'var' must always have an initial value, or the type cannot be inferred.\00", align 1
@.str.26 = private unnamed_addr constant [58 x i8] c"Expected a compile time variable name ('$Foo' or '$foo').\00", align 1

; Function Attrs: nounwind uwtable
define dso_local ptr @parse_var_decl(ptr noundef %0) #0 {
  %2 = alloca ptr, align 8
  %3 = alloca ptr, align 8
  %4 = alloca ptr, align 8
  %5 = alloca ptr, align 8
  %6 = alloca i32, align 4
  %7 = alloca ptr, align 8
  %8 = alloca i32, align 4
  %9 = alloca ptr, align 8
  %10 = alloca ptr, align 8
  %11 = alloca ptr, align 8
  %12 = alloca i32, align 4
  %13 = alloca ptr, align 8
  %14 = alloca ptr, align 8
  %15 = alloca ptr, align 8
  %16 = alloca i32, align 4
  %17 = alloca ptr, align 8
  %18 = alloca ptr, align 8
  %19 = alloca ptr, align 8
  %20 = alloca i32, align 4
  %21 = alloca ptr, align 8
  %22 = alloca i32, align 4
  %23 = alloca ptr, align 8
  %24 = alloca ptr, align 8
  %25 = alloca ptr, align 8
  %26 = alloca ptr, align 8
  %27 = alloca ptr, align 8
  %28 = alloca ptr, align 8
  store ptr %0, ptr %24, align 8
  %29 = load ptr, ptr %24, align 8
  store ptr %29, ptr %5, align 8
  store i32 143, ptr %6, align 4
  %30 = load ptr, ptr %5, align 8
  call void @advance(ptr noundef %30) #6
  %31 = load ptr, ptr %24, align 8
  %32 = getelementptr inbounds %struct.ParseContext_, ptr %31, i32 0, i32 1
  %33 = load i32, ptr %32, align 8
  switch i32 %33, label %164 [
    i32 65, label %34
    i32 64, label %40
    i32 67, label %88
    i32 69, label %126
  ]

34:                                               ; preds = %1
  %35 = load ptr, ptr %24, align 8
  %36 = getelementptr inbounds %struct.ParseContext_, ptr %35, i32 0, i32 2
  %37 = getelementptr inbounds %union.SourceSpan, ptr %36, i32 0, i32 0
  %38 = load i64, ptr %37, align 8
  call void (i64, ptr, ...) @sema_error_at(i64 %38, ptr noundef @.str.24)
  %39 = load ptr, ptr @poisoned_decl, align 8
  store ptr %39, ptr %23, align 8
  br label %172

40:                                               ; preds = %1
  %41 = load ptr, ptr %24, align 8
  store ptr %41, ptr %10, align 8
  store ptr null, ptr %11, align 8
  store i32 2, ptr %12, align 4
  %42 = load ptr, ptr %10, align 8
  store ptr %42, ptr %9, align 8
  %43 = load ptr, ptr %9, align 8
  %44 = getelementptr inbounds %struct.TokenData, ptr %43, i32 0, i32 2
  %45 = load ptr, ptr %44, align 8
  %46 = load ptr, ptr %10, align 8
  %47 = getelementptr inbounds %struct.ParseContext_, ptr %46, i32 0, i32 2
  %48 = load ptr, ptr %11, align 8
  %49 = load i32, ptr %12, align 4
  %50 = load i64, ptr %47, align 8
  %51 = call ptr @decl_new_var(ptr noundef %45, i64 %50, ptr noundef %48, i32 noundef %49) #6
  store ptr %51, ptr %25, align 8
  %52 = load ptr, ptr %24, align 8
  call void @advance(ptr noundef %52)
  %53 = load ptr, ptr %24, align 8
  store ptr %53, ptr %21, align 8
  store i32 10, ptr %22, align 4
  %54 = load ptr, ptr %21, align 8
  %55 = getelementptr inbounds %struct.ParseContext_, ptr %54, i32 0, i32 1
  %56 = load i32, ptr %55, align 8
  %57 = load i32, ptr %22, align 4
  %58 = icmp eq i32 %56, %57
  br i1 %58, label %64, label %59

59:                                               ; preds = %40
  %60 = load ptr, ptr %24, align 8
  %61 = getelementptr inbounds %struct.ParseContext_, ptr %60, i32 0, i32 2
  %62 = getelementptr inbounds %union.SourceSpan, ptr %61, i32 0, i32 0
  %63 = load i64, ptr %62, align 8
  call void (i64, ptr, ...) @sema_error_at(i64 %63, ptr noundef @.str.25)
  store ptr null, ptr %23, align 8
  br label %172

64:                                               ; preds = %40
  %65 = load ptr, ptr %24, align 8
  store ptr %65, ptr %7, align 8
  store i32 10, ptr %8, align 4
  %66 = load ptr, ptr %7, align 8
  call void @advance(ptr noundef %66) #6
  %67 = load ptr, ptr %24, align 8
  %68 = call ptr @parse_expr(ptr noundef %67)
  store ptr %68, ptr %26, align 8
  %69 = load ptr, ptr %26, align 8
  store ptr %69, ptr %2, align 8
  %70 = load ptr, ptr %2, align 8
  %71 = icmp eq ptr %70, null
  br i1 %71, label %79, label %72

72:                                               ; preds = %64
  %73 = load ptr, ptr %2, align 8
  %74 = getelementptr inbounds %struct.Expr_, ptr %73, i32 0, i32 2
  %75 = load i16, ptr %74, align 8
  %76 = and i16 %75, 255
  %77 = zext i16 %76 to i32
  %78 = icmp ne i32 %77, 0
  br label %79

79:                                               ; preds = %72, %64
  %80 = phi i1 [ true, %64 ], [ %78, %72 ]
  br i1 %80, label %83, label %81

81:                                               ; preds = %79
  %82 = load ptr, ptr @poisoned_decl, align 8
  store ptr %82, ptr %23, align 8
  br label %172

83:                                               ; preds = %79
  %84 = load ptr, ptr %26, align 8
  %85 = load ptr, ptr %25, align 8
  %86 = getelementptr inbounds %struct.Decl_, ptr %85, i32 0, i32 11
  %87 = getelementptr inbounds %struct.VarDecl_, ptr %86, i32 0, i32 2
  store ptr %84, ptr %87, align 8
  br label %170

88:                                               ; preds = %1
  %89 = load ptr, ptr %24, align 8
  store ptr %89, ptr %14, align 8
  store ptr null, ptr %15, align 8
  store i32 13, ptr %16, align 4
  %90 = load ptr, ptr %14, align 8
  store ptr %90, ptr %13, align 8
  %91 = load ptr, ptr %13, align 8
  %92 = getelementptr inbounds %struct.TokenData, ptr %91, i32 0, i32 2
  %93 = load ptr, ptr %92, align 8
  %94 = load ptr, ptr %14, align 8
  %95 = getelementptr inbounds %struct.ParseContext_, ptr %94, i32 0, i32 2
  %96 = load ptr, ptr %15, align 8
  %97 = load i32, ptr %16, align 4
  %98 = load i64, ptr %95, align 8
  %99 = call ptr @decl_new_var(ptr noundef %93, i64 %98, ptr noundef %96, i32 noundef %97) #6
  store ptr %99, ptr %25, align 8
  %100 = load ptr, ptr %24, align 8
  call void @advance(ptr noundef %100)
  %101 = load ptr, ptr %24, align 8
  %102 = call zeroext i1 @try_consume(ptr noundef %101, i32 noundef 10)
  br i1 %102, label %103, label %125

103:                                              ; preds = %88
  %104 = load ptr, ptr %24, align 8
  %105 = call ptr @parse_expr(ptr noundef %104)
  store ptr %105, ptr %27, align 8
  %106 = load ptr, ptr %27, align 8
  store ptr %106, ptr %3, align 8
  %107 = load ptr, ptr %3, align 8
  %108 = icmp eq ptr %107, null
  br i1 %108, label %116, label %109

109:                                              ; preds = %103
  %110 = load ptr, ptr %3, align 8
  %111 = getelementptr inbounds %struct.Expr_, ptr %110, i32 0, i32 2
  %112 = load i16, ptr %111, align 8
  %113 = and i16 %112, 255
  %114 = zext i16 %113 to i32
  %115 = icmp ne i32 %114, 0
  br label %116

116:                                              ; preds = %109, %103
  %117 = phi i1 [ true, %103 ], [ %115, %109 ]
  br i1 %117, label %120, label %118

118:                                              ; preds = %116
  %119 = load ptr, ptr @poisoned_decl, align 8
  store ptr %119, ptr %23, align 8
  br label %172

120:                                              ; preds = %116
  %121 = load ptr, ptr %27, align 8
  %122 = load ptr, ptr %25, align 8
  %123 = getelementptr inbounds %struct.Decl_, ptr %122, i32 0, i32 11
  %124 = getelementptr inbounds %struct.VarDecl_, ptr %123, i32 0, i32 2
  store ptr %121, ptr %124, align 8
  br label %125

125:                                              ; preds = %120, %88
  br label %170

126:                                              ; preds = %1
  %127 = load ptr, ptr %24, align 8
  store ptr %127, ptr %18, align 8
  store ptr null, ptr %19, align 8
  store i32 14, ptr %20, align 4
  %128 = load ptr, ptr %18, align 8
  store ptr %128, ptr %17, align 8
  %129 = load ptr, ptr %17, align 8
  %130 = getelementptr inbounds %struct.TokenData, ptr %129, i32 0, i32 2
  %131 = load ptr, ptr %130, align 8
  %132 = load ptr, ptr %18, align 8
  %133 = getelementptr inbounds %struct.ParseContext_, ptr %132, i32 0, i32 2
  %134 = load ptr, ptr %19, align 8
  %135 = load i32, ptr %20, align 4
  %136 = load i64, ptr %133, align 8
  %137 = call ptr @decl_new_var(ptr noundef %131, i64 %136, ptr noundef %134, i32 noundef %135) #6
  store ptr %137, ptr %25, align 8
  %138 = load ptr, ptr %24, align 8
  call void @advance(ptr noundef %138)
  %139 = load ptr, ptr %24, align 8
  %140 = call zeroext i1 @try_consume(ptr noundef %139, i32 noundef 10)
  br i1 %140, label %141, label %163

141:                                              ; preds = %126
  %142 = load ptr, ptr %24, align 8
  %143 = call ptr @parse_expr(ptr noundef %142)
  store ptr %143, ptr %28, align 8
  %144 = load ptr, ptr %28, align 8
  store ptr %144, ptr %4, align 8
  %145 = load ptr, ptr %4, align 8
  %146 = icmp eq ptr %145, null
  br i1 %146, label %154, label %147

147:                                              ; preds = %141
  %148 = load ptr, ptr %4, align 8
  %149 = getelementptr inbounds %struct.Expr_, ptr %148, i32 0, i32 2
  %150 = load i16, ptr %149, align 8
  %151 = and i16 %150, 255
  %152 = zext i16 %151 to i32
  %153 = icmp ne i32 %152, 0
  br label %154

154:                                              ; preds = %147, %141
  %155 = phi i1 [ true, %141 ], [ %153, %147 ]
  br i1 %155, label %158, label %156

156:                                              ; preds = %154
  %157 = load ptr, ptr @poisoned_decl, align 8
  store ptr %157, ptr %23, align 8
  br label %172

158:                                              ; preds = %154
  %159 = load ptr, ptr %28, align 8
  %160 = load ptr, ptr %25, align 8
  %161 = getelementptr inbounds %struct.Decl_, ptr %160, i32 0, i32 11
  %162 = getelementptr inbounds %struct.VarDecl_, ptr %161, i32 0, i32 2
  store ptr %159, ptr %162, align 8
  br label %163

163:                                              ; preds = %158, %126
  br label %170

164:                                              ; preds = %1
  %165 = load ptr, ptr %24, align 8
  %166 = getelementptr inbounds %struct.ParseContext_, ptr %165, i32 0, i32 2
  %167 = getelementptr inbounds %union.SourceSpan, ptr %166, i32 0, i32 0
  %168 = load i64, ptr %167, align 8
  call void (i64, ptr, ...) @sema_error_at(i64 %168, ptr noundef @.str.26)
  %169 = load ptr, ptr @poisoned_decl, align 8
  store ptr %169, ptr %23, align 8
  br label %172

170:                                              ; preds = %163, %125, %83
  %171 = load ptr, ptr %25, align 8
  store ptr %171, ptr %23, align 8
  br label %172

172:                                              ; preds = %170, %164, %156, %118, %81, %59, %34
  %173 = load ptr, ptr %23, align 8
  ret ptr %173
}