; Function Attrs: nounwind uwtable
define dso_local ptr @parse_var_decl(ptr noundef %0) local_unnamed_addr #0 {
  tail call void @advance(ptr noundef %0) #8
  %2 = getelementptr inbounds i8, ptr %0, i64 40
  %3 = load i32, ptr %2, align 8
  switch i32 %3, label %62 [
    i32 65, label %4
    i32 64, label %8
    i32 67, label %28
    i32 69, label %45
  ]

4:                                                ; preds = %1
  %5 = getelementptr inbounds i8, ptr %0, i64 48
  %6 = load i64, ptr %5, align 8
  tail call void (i64, ptr, ...) @sema_error_at(i64 %6, ptr noundef nonnull @.str.24) #8
  %7 = load ptr, ptr @poisoned_decl, align 8
  br label %66

8:                                                ; preds = %1
  %9 = getelementptr inbounds i8, ptr %0, i64 16
  %10 = load ptr, ptr %9, align 8
  %11 = getelementptr inbounds i8, ptr %0, i64 48
  %12 = load i64, ptr %11, align 8
  %13 = tail call ptr @decl_new_var(ptr noundef %10, i64 %12, ptr noundef null, i32 noundef 2) #8
  tail call void @advance(ptr noundef nonnull %0) #8
  %14 = load i32, ptr %2, align 8
  %15 = icmp eq i32 %14, 10
  br i1 %15, label %18, label %16

16:                                               ; preds = %8
  %17 = load i64, ptr %11, align 8
  tail call void (i64, ptr, ...) @sema_error_at(i64 %17, ptr noundef nonnull @.str.25) #8
  br label %66

18:                                               ; preds = %8
  tail call void @advance(ptr noundef nonnull %0) #8
  %19 = tail call ptr @parse_expr(ptr noundef nonnull %0) #8
  %20 = icmp eq ptr %19, null
  br i1 %20, label %.critedge, label %21

21:                                               ; preds = %18
  %22 = getelementptr inbounds i8, ptr %19, i64 16
  %23 = load i16, ptr %22, align 8
  %24 = and i16 %23, 255
  %.not62 = icmp eq i16 %24, 0
  br i1 %.not62, label %25, label %.critedge

25:                                               ; preds = %21
  %26 = load ptr, ptr @poisoned_decl, align 8
  br label %66

.critedge:                                        ; preds = %18, %21
  %27 = getelementptr inbounds i8, ptr %13, i64 88
  store ptr %19, ptr %27, align 8
  br label %66

28:                                               ; preds = %1
  %29 = getelementptr inbounds i8, ptr %0, i64 16
  %30 = load ptr, ptr %29, align 8
  %31 = getelementptr inbounds i8, ptr %0, i64 48
  %32 = load i64, ptr %31, align 8
  %33 = tail call ptr @decl_new_var(ptr noundef %30, i64 %32, ptr noundef null, i32 noundef 13) #8
  tail call void @advance(ptr noundef nonnull %0) #8
  %34 = tail call zeroext i1 @try_consume(ptr noundef nonnull %0, i32 noundef 10) #8
  br i1 %34, label %35, label %66

35:                                               ; preds = %28
  %36 = tail call ptr @parse_expr(ptr noundef nonnull %0) #8
  %37 = icmp eq ptr %36, null
  br i1 %37, label %.critedge2, label %38

38:                                               ; preds = %35
  %39 = getelementptr inbounds i8, ptr %36, i64 16
  %40 = load i16, ptr %39, align 8
  %41 = and i16 %40, 255
  %.not61 = icmp eq i16 %41, 0
  br i1 %.not61, label %42, label %.critedge2

42:                                               ; preds = %38
  %43 = load ptr, ptr @poisoned_decl, align 8
  br label %66

.critedge2:                                       ; preds = %35, %38
  %44 = getelementptr inbounds i8, ptr %33, i64 88
  store ptr %36, ptr %44, align 8
  br label %66

45:                                               ; preds = %1
  %46 = getelementptr inbounds i8, ptr %0, i64 16
  %47 = load ptr, ptr %46, align 8
  %48 = getelementptr inbounds i8, ptr %0, i64 48
  %49 = load i64, ptr %48, align 8
  %50 = tail call ptr @decl_new_var(ptr noundef %47, i64 %49, ptr noundef null, i32 noundef 14) #8
  tail call void @advance(ptr noundef nonnull %0) #8
  %51 = tail call zeroext i1 @try_consume(ptr noundef nonnull %0, i32 noundef 10) #8
  br i1 %51, label %52, label %66

52:                                               ; preds = %45
  %53 = tail call ptr @parse_expr(ptr noundef nonnull %0) #8
  %54 = icmp eq ptr %53, null
  br i1 %54, label %.critedge4, label %55

55:                                               ; preds = %52
  %56 = getelementptr inbounds i8, ptr %53, i64 16
  %57 = load i16, ptr %56, align 8
  %58 = and i16 %57, 255
  %.not = icmp eq i16 %58, 0
  br i1 %.not, label %59, label %.critedge4

59:                                               ; preds = %55
  %60 = load ptr, ptr @poisoned_decl, align 8
  br label %66

.critedge4:                                       ; preds = %52, %55
  %61 = getelementptr inbounds i8, ptr %50, i64 88
  store ptr %53, ptr %61, align 8
  br label %66

62:                                               ; preds = %1
  %63 = getelementptr inbounds i8, ptr %0, i64 48
  %64 = load i64, ptr %63, align 8
  tail call void (i64, ptr, ...) @sema_error_at(i64 %64, ptr noundef nonnull @.str.26) #8
  %65 = load ptr, ptr @poisoned_decl, align 8
  br label %66

66:                                               ; preds = %.critedge, %.critedge2, %28, %.critedge4, %45, %62, %59, %42, %25, %16, %4
  %.0 = phi ptr [ %65, %62 ], [ %60, %59 ], [ %43, %42 ], [ %26, %25 ], [ null, %16 ], [ %7, %4 ], [ %50, %.critedge4 ], [ %50, %45 ], [ %33, %.critedge2 ], [ %33, %28 ], [ %13, %.critedge ]
  ret ptr %.0
}